target datalayout = "e-m:e-p270:32:32-p271:32:32-p272:64:64-i64:64-i128:128-f80:128-n8:16:32:64-S128"
target triple = "x86_64-pc-linux-gnu"

%"class.ue2::ReportManager" = type <{ %"class.ue2::ParsedLogical", ptr, %"class.std::vector.13", %"class.std::unordered_map", %"class.std::unordered_map.23", %"class.std::unordered_map.23", %"class.std::unordered_map.42", %"class.std::map.56", i64, i8, [7 x i8] }>
%"class.ue2::ParsedLogical" = type { %"class.std::vector", %"class.std::map", %"class.std::map", %"class.std::map.3", %"class.std::vector.8" }
%"class.std::vector" = type { %"struct.std::_Vector_base" }
%"struct.std::_Vector_base" = type { %"struct.std::_Vector_base<CombInfo, std::allocator<CombInfo>>::_Vector_impl" }
%"struct.std::_Vector_base<CombInfo, std::allocator<CombInfo>>::_Vector_impl" = type { %"struct.std::_Vector_base<CombInfo, std::allocator<CombInfo>>::_Vector_impl_data" }
%"struct.std::_Vector_base<CombInfo, std::allocator<CombInfo>>::_Vector_impl_data" = type { ptr, ptr, ptr }
%"class.std::map" = type { %"class.std::_Rb_tree" }
%"class.std::_Rb_tree" = type { %"struct.std::_Rb_tree<unsigned int, std::pair<const unsigned int, unsigned int>, std::_Select1st<std::pair<const unsigned int, unsigned int>>, std::less<unsigned int>>::_Rb_tree_impl" }
%"struct.std::_Rb_tree<unsigned int, std::pair<const unsigned int, unsigned int>, std::_Select1st<std::pair<const unsigned int, unsigned int>>, std::less<unsigned int>>::_Rb_tree_impl" = type { [8 x i8], %"struct.std::_Rb_tree_header" }
%"struct.std::_Rb_tree_header" = type { %"struct.std::_Rb_tree_node_base", i64 }
%"struct.std::_Rb_tree_node_base" = type { i32, ptr, ptr, ptr }
%"class.std::map.3" = type { %"class.std::_Rb_tree.4" }
%"class.std::_Rb_tree.4" = type { %"struct.std::_Rb_tree<unsigned int, std::pair<const unsigned int, std::set<unsigned int>>, std::_Select1st<std::pair<const unsigned int, std::set<unsigned int>>>, std::less<unsigned int>>::_Rb_tree_impl" }
%"struct.std::_Rb_tree<unsigned int, std::pair<const unsigned int, std::set<unsigned int>>, std::_Select1st<std::pair<const unsigned int, std::set<unsigned int>>>, std::less<unsigned int>>::_Rb_tree_impl" = type { [8 x i8], %"struct.std::_Rb_tree_header" }
%"class.std::vector.8" = type { %"struct.std::_Vector_base.9" }
%"struct.std::_Vector_base.9" = type { %"struct.std::_Vector_base<LogicalOp, std::allocator<LogicalOp>>::_Vector_impl" }
%"struct.std::_Vector_base<LogicalOp, std::allocator<LogicalOp>>::_Vector_impl" = type { %"struct.std::_Vector_base<LogicalOp, std::allocator<LogicalOp>>::_Vector_impl_data" }
%"struct.std::_Vector_base<LogicalOp, std::allocator<LogicalOp>>::_Vector_impl_data" = type { ptr, ptr, ptr }
%"class.std::vector.13" = type { %"struct.std::_Vector_base.14" }
%"struct.std::_Vector_base.14" = type { %"struct.std::_Vector_base<ue2::Report, std::allocator<ue2::Report>>::_Vector_impl" }
%"struct.std::_Vector_base<ue2::Report, std::allocator<ue2::Report>>::_Vector_impl" = type { %"struct.std::_Vector_base<ue2::Report, std::allocator<ue2::Report>>::_Vector_impl_data" }
%"struct.std::_Vector_base<ue2::Report, std::allocator<ue2::Report>>::_Vector_impl_data" = type { ptr, ptr, ptr }
%"class.std::unordered_map" = type { %"class.std::_Hashtable" }
%"class.std::_Hashtable" = type { ptr, i64, %"struct.std::__detail::_Hash_node_base", i64, %"struct.std::__detail::_Prime_rehash_policy", ptr }
%"struct.std::__detail::_Hash_node_base" = type { ptr }
%"struct.std::__detail::_Prime_rehash_policy" = type { float, i64 }
%"class.std::unordered_map.23" = type { %"class.std::_Hashtable.24" }
%"class.std::_Hashtable.24" = type { ptr, i64, %"struct.std::__detail::_Hash_node_base", i64, %"struct.std::__detail::_Prime_rehash_policy", ptr }
%"class.std::unordered_map.42" = type { %"class.std::_Hashtable.43" }
%"class.std::_Hashtable.43" = type { ptr, i64, %"struct.std::__detail::_Hash_node_base", i64, %"struct.std::__detail::_Prime_rehash_policy", ptr }
%"class.std::map.56" = type { %"class.std::_Rb_tree.57" }
%"class.std::_Rb_tree.57" = type { %"struct.std::_Rb_tree<long long, std::pair<const long long, unsigned int>, std::_Select1st<std::pair<const long long, unsigned int>>, std::less<long long>>::_Rb_tree_impl" }
%"struct.std::_Rb_tree<long long, std::pair<const long long, unsigned int>, std::_Select1st<std::pair<const long long, unsigned int>>, std::less<long long>>::_Rb_tree_impl" = type { [8 x i8], %"struct.std::_Rb_tree_header" }

; Function Attrs: mustprogress nounwind uwtable
define linkonce_odr dso_local noundef zeroext i1 @_ZNKSt8_Rb_treeIxSt4pairIKxjESt10_Select1stIS2_ESt4lessIxESaIS2_EE5emptyEv(ptr noundef nonnull align 8 dereferenceable(48) %0) #1 comdat align 2 {
  %2 = alloca ptr, align 8
  store ptr %0, ptr %2, align 8
  %3 = load ptr, ptr %2, align 8
  %4 = getelementptr inbounds nuw %"class.std::_Rb_tree.57", ptr %3, i32 0, i32 0
  %5 = getelementptr inbounds i8, ptr %4, i64 8
  %6 = getelementptr inbounds nuw %"struct.std::_Rb_tree_header", ptr %5, i32 0, i32 1
  %7 = load i64, ptr %6, align 8
  %8 = icmp eq i64 %7, 0
  ret i1 %8
}

; Function Attrs: mustprogress nounwind uwtable
define linkonce_odr dso_local noundef zeroext i1 @_ZNKSt3mapIxjSt4lessIxESaISt4pairIKxjEEE5emptyEv(ptr noundef nonnull align 8 dereferenceable(48) %0) #1 comdat align 2 {
  %2 = alloca ptr, align 8
  store ptr %0, ptr %2, align 8
  %3 = load ptr, ptr %2, align 8
  %4 = getelementptr inbounds nuw %"class.std::map.56", ptr %3, i32 0, i32 0
  %5 = call noundef zeroext i1 @_ZNKSt8_Rb_treeIxSt4pairIKxjESt10_Select1stIS2_ESt4lessIxESaIS2_EE5emptyEv(ptr noundef nonnull align 8 dereferenceable(48) %4) #19
  ret i1 %5
}

; Function Attrs: mustprogress nounwind uwtable
define hidden noundef zeroext i1 @_ZNK3ue213ReportManager20patternSetCanExhaustEv(ptr noundef nonnull align 8 dereferenceable(505) %0) #1 align 2 {
  %2 = alloca ptr, align 8
  store ptr %0, ptr %2, align 8
  %3 = load ptr, ptr %2, align 8
  %4 = getelementptr inbounds nuw %"class.ue2::ReportManager", ptr %3, i32 0, i32 9
  %5 = load i8, ptr %4, align 8, !range !5, !noundef !6
  %6 = trunc i8 %5 to i1
  br i1 %6, label %7, label %11

7:                                                ; preds = %1
  %8 = getelementptr inbounds nuw %"class.ue2::ReportManager", ptr %3, i32 0, i32 7
  %9 = call noundef zeroext i1 @_ZNKSt3mapIxjSt4lessIxESaISt4pairIKxjEEE5emptyEv(ptr noundef nonnull align 8 dereferenceable(48) %8) #19
  %10 = xor i1 %9, true
  br label %11

11:                                               ; preds = %7, %1
  %12 = phi i1 [ false, %1 ], [ %10, %7 ]
  ret i1 %12
}