; Function Attrs: mustprogress nofree norecurse nosync nounwind willreturn memory(argmem: read) uwtable
define hidden noundef zeroext i1 @_ZNK3ue213ReportManager20patternSetCanExhaustEv(ptr noundef nonnull readonly align 8 captures(none) dereferenceable(505) %0) local_unnamed_addr #3 align 2 {
  %2 = getelementptr inbounds nuw i8, ptr %0, i64 504
  %3 = load i8, ptr %2, align 8, !range !18, !noundef !19
  %4 = trunc nuw i8 %3 to i1
  %5 = getelementptr inbounds nuw i8, ptr %0, i64 488
  %6 = load i64, ptr %5, align 8
  %7 = icmp ne i64 %6, 0
  %8 = select i1 %4, i1 %7, i1 false
  ret i1 %8
}